; Function Attrs: mustprogress uwtable
define void @_ZNK32pxrInternal_v0_24__pxrReserved__17UsdLuxLightFilter10GetOutputsEb(ptr dead_on_unwind noalias writable sret(%"class.std::vector.84") align 8 %0, ptr noundef nonnull align 8 dereferenceable(24) %1, i1 noundef zeroext %2) local_unnamed_addr #0 align 2 personality ptr @__gxx_personality_v0 {
  %4 = alloca %"class.pxrInternal_v0_24__pxrReserved__::UsdShadeConnectableAPI", align 8
  %5 = alloca %"class.pxrInternal_v0_24__pxrReserved__::UsdPrim", align 8
  %6 = getelementptr inbounds nuw i8, ptr %1, i64 8
  %7 = getelementptr inbounds nuw i8, ptr %1, i64 16
  call void @_ZN32pxrInternal_v0_24__pxrReserved__9UsdObjectC2ERKNS_18Usd_PrimDataHandleERKNS_7SdfPathE(ptr noundef nonnull align 8 dereferenceable(32) %5, ptr noundef nonnull align 8 dereferenceable(8) %6, ptr noundef nonnull align 4 dereferenceable(8) %7)
  invoke void @_ZN32pxrInternal_v0_24__pxrReserved__13UsdSchemaBaseC2ERKNS_7UsdPrimE(ptr noundef nonnull align 8 dereferenceable(32) %4, ptr noundef nonnull align 8 dereferenceable(32) %5)
          to label %8 unwind label %44

8:                                                ; preds = %3
  %9 = getelementptr inbounds nuw i8, ptr %4, i64 24
  store ptr null, ptr %9, align 8
  store ptr getelementptr inbounds nuw inrange(-16, 48) (i8, ptr @_ZTVN32pxrInternal_v0_24__pxrReserved__22UsdShadeConnectableAPIE, i64 16), ptr %4, align 8
  invoke void @_ZNK32pxrInternal_v0_24__pxrReserved__22UsdShadeConnectableAPI10GetOutputsEb(ptr dead_on_unwind writable sret(%"class.std::vector.84") align 8 %0, ptr noundef nonnull align 8 dereferenceable(32) %4, i1 noundef zeroext %2)
          to label %10 unwind label %46

10:                                               ; preds = %8
  call void @_ZN32pxrInternal_v0_24__pxrReserved__22UsdShadeConnectableAPID1Ev(ptr noundef nonnull align 8 dereferenceable(32) %4) #15
  %11 = getelementptr inbounds nuw i8, ptr %5, i64 24
  %12 = load ptr, ptr %11, align 8
  %13 = ptrtoint ptr %12 to i64
  %14 = and i64 %13, 7
  %.not.i.i.i.i = icmp eq i64 %14, 0
  br i1 %.not.i.i.i.i, label %_ZN32pxrInternal_v0_24__pxrReserved__7TfTokenD2Ev.exit.i.i, label %15

15:                                               ; preds = %10
  %16 = and i64 %13, -8
  %17 = inttoptr i64 %16 to ptr
  %18 = atomicrmw sub ptr %17, i32 2 release, align 4
  br label %_ZN32pxrInternal_v0_24__pxrReserved__7TfTokenD2Ev.exit.i.i

_ZN32pxrInternal_v0_24__pxrReserved__7TfTokenD2Ev.exit.i.i: ; preds = %15, %10
  %19 = getelementptr inbounds nuw i8, ptr %5, i64 16
  %20 = load i32, ptr %19, align 8
  %.not.i.i1.i.i = icmp eq i32 %20, 0
  br i1 %.not.i.i1.i.i, label %_ZN32pxrInternal_v0_24__pxrReserved__7SdfPathD2Ev.exit.i.i, label %21

21:                                               ; preds = %_ZN32pxrInternal_v0_24__pxrReserved__7TfTokenD2Ev.exit.i.i
  %22 = and i32 %20, 255
  %23 = lshr i32 %20, 8
  %24 = zext nneg i32 %22 to i64
  %25 = getelementptr inbounds nuw [257 x ptr], ptr @_ZN32pxrInternal_v0_24__pxrReserved__8Sdf_PoolINS_15Sdf_PathPrimTagELj24ELj8ELj16384EE13_regionStartsE, i64 0, i64 %24
  %26 = load ptr, ptr %25, align 8
  %27 = mul nuw nsw i32 %23, 24
  %28 = zext nneg i32 %27 to i64
  %29 = getelementptr inbounds nuw i8, ptr %26, i64 %28
  %30 = getelementptr inbounds nuw i8, ptr %29, i64 8
  %31 = atomicrmw sub ptr %30, i32 1 seq_cst, align 4
  %32 = and i32 %31, 2147483647
  %33 = icmp eq i32 %32, 1
  br i1 %33, label %34, label %_ZN32pxrInternal_v0_24__pxrReserved__7SdfPathD2Ev.exit.i.i

34:                                               ; preds = %21
  invoke void @_ZNK32pxrInternal_v0_24__pxrReserved__12Sdf_PathNode8_DestroyEv(ptr noundef nonnull align 8 dereferenceable(16) %29)
          to label %_ZN32pxrInternal_v0_24__pxrReserved__7SdfPathD2Ev.exit.i.i unwind label %35

35:                                               ; preds = %34
  %36 = landingpad { ptr, i32 }
          catch ptr null
  %37 = extractvalue { ptr, i32 } %36, 0
  call void @__clang_call_terminate(ptr %37) #17
  unreachable

_ZN32pxrInternal_v0_24__pxrReserved__7SdfPathD2Ev.exit.i.i: ; preds = %34, %21, %_ZN32pxrInternal_v0_24__pxrReserved__7TfTokenD2Ev.exit.i.i
  %38 = getelementptr inbounds nuw i8, ptr %5, i64 8
  %39 = load ptr, ptr %38, align 8
  %.not.i.i.i.i.i = icmp eq ptr %39, null
  br i1 %.not.i.i.i.i.i, label %_ZN32pxrInternal_v0_24__pxrReserved__7UsdPrimD2Ev.exit, label %40

40:                                               ; preds = %_ZN32pxrInternal_v0_24__pxrReserved__7SdfPathD2Ev.exit.i.i
  %41 = getelementptr inbounds nuw i8, ptr %39, i64 48
  %42 = atomicrmw sub ptr %41, i64 1 release, align 8
  %.not1.i.i.i.i.i = icmp eq i64 %42, 1
  br i1 %.not1.i.i.i.i.i, label %43, label %_ZN32pxrInternal_v0_24__pxrReserved__7UsdPrimD2Ev.exit

43:                                               ; preds = %40
  call void @_ZN32pxrInternal_v0_24__pxrReserved__12Usd_PrimDataD1Ev(ptr noundef nonnull align 8 dereferenceable(64) %39) #15
  call void @_ZdlPvm(ptr noundef nonnull %39, i64 noundef 64) #16
  br label %_ZN32pxrInternal_v0_24__pxrReserved__7UsdPrimD2Ev.exit

_ZN32pxrInternal_v0_24__pxrReserved__7UsdPrimD2Ev.exit: ; preds = %_ZN32pxrInternal_v0_24__pxrReserved__7SdfPathD2Ev.exit.i.i, %40, %43
  ret void

44:                                               ; preds = %3
  %45 = landingpad { ptr, i32 }
          cleanup
  br label %48

46:                                               ; preds = %8
  %47 = landingpad { ptr, i32 }
          cleanup
  call void @_ZN32pxrInternal_v0_24__pxrReserved__22UsdShadeConnectableAPID1Ev(ptr noundef nonnull align 8 dereferenceable(32) %4) #15
  br label %48

48:                                               ; preds = %46, %44
  %.pn = phi { ptr, i32 } [ %47, %46 ], [ %45, %44 ]
  call void @_ZN32pxrInternal_v0_24__pxrReserved__7UsdPrimD2Ev(ptr noundef nonnull align 8 dereferenceable(32) %5) #15
  resume { ptr, i32 } %.pn
}